target datalayout = "e-m:e-p270:32:32-p271:32:32-p272:64:64-i64:64-i128:128-f80:128-n8:16:32:64-S128"
target triple = "x86_64-pc-linux-gnu"

%struct.pg_hmac_ctx = type { ptr, i32, i32, ptr, i32, i32, [128 x i8], [128 x i8] }

; Function Attrs: nounwind uwtable
define dso_local i32 @pg_hmac_update(ptr noundef %0, ptr noundef %1, i64 noundef %2) #0 {
  %4 = alloca i32, align 4
  %5 = alloca ptr, align 8
  %6 = alloca ptr, align 8
  %7 = alloca i64, align 8
  store ptr %0, ptr %5, align 8
  store ptr %1, ptr %6, align 8
  store i64 %2, ptr %7, align 8
  %8 = load ptr, ptr %5, align 8
  %9 = icmp eq ptr %8, null
  br i1 %9, label %10, label %11

10:                                               ; preds = %3
  store i32 -1, ptr %4, align 4
  br label %29

11:                                               ; preds = %3
  %12 = load ptr, ptr %5, align 8
  %13 = getelementptr inbounds nuw %struct.pg_hmac_ctx, ptr %12, i32 0, i32 0
  %14 = load ptr, ptr %13, align 8
  %15 = load ptr, ptr %6, align 8
  %16 = load i64, ptr %7, align 8
  %17 = call i32 @pg_cryptohash_update(ptr noundef %14, ptr noundef %15, i64 noundef %16)
  %18 = icmp slt i32 %17, 0
  br i1 %18, label %19, label %28

19:                                               ; preds = %11
  %20 = load ptr, ptr %5, align 8
  %21 = getelementptr inbounds nuw %struct.pg_hmac_ctx, ptr %20, i32 0, i32 2
  store i32 2, ptr %21, align 4
  %22 = load ptr, ptr %5, align 8
  %23 = getelementptr inbounds nuw %struct.pg_hmac_ctx, ptr %22, i32 0, i32 0
  %24 = load ptr, ptr %23, align 8
  %25 = call ptr @pg_cryptohash_error(ptr noundef %24)
  %26 = load ptr, ptr %5, align 8
  %27 = getelementptr inbounds nuw %struct.pg_hmac_ctx, ptr %26, i32 0, i32 3
  store ptr %25, ptr %27, align 8
  store i32 -1, ptr %4, align 4
  br label %29

28:                                               ; preds = %11
  store i32 0, ptr %4, align 4
  br label %29

29:                                               ; preds = %28, %19, %10
  %30 = load i32, ptr %4, align 4
  ret i32 %30
}