; Function Attrs: nounwind uwtable
define dso_local range(i32 -1, 1) i32 @pg_hmac_update(ptr noundef captures(address_is_null) %0, ptr noundef %1, i64 noundef %2) local_unnamed_addr #0 {
  %4 = icmp eq ptr %0, null
  br i1 %4, label %14, label %5

5:                                                ; preds = %3
  %6 = load ptr, ptr %0, align 8
  %7 = tail call i32 @pg_cryptohash_update(ptr noundef %6, ptr noundef %1, i64 noundef %2) #5
  %8 = icmp slt i32 %7, 0
  br i1 %8, label %9, label %14

9:                                                ; preds = %5
  %10 = getelementptr inbounds nuw i8, ptr %0, i64 12
  store i32 2, ptr %10, align 4
  %11 = load ptr, ptr %0, align 8
  %12 = tail call ptr @pg_cryptohash_error(ptr noundef %11) #5
  %13 = getelementptr inbounds nuw i8, ptr %0, i64 16
  store ptr %12, ptr %13, align 8
  br label %14

14:                                               ; preds = %5, %3, %9
  %.0 = phi i32 [ -1, %9 ], [ -1, %3 ], [ 0, %5 ]
  ret i32 %.0
}